; Function Attrs: mustprogress nofree norecurse nosync nounwind memory(readwrite, inaccessiblemem: none) uwtable
define hidden void @_ZN10HeapShared23set_has_native_pointersEP7oopDesc(ptr noundef %0) local_unnamed_addr #10 align 2 {
  %2 = load ptr, ptr @_ZN10HeapShared22_archived_object_cacheE, align 8
  %3 = ptrtoint ptr %0 to i64
  %4 = trunc i64 %3 to i32
  %5 = lshr i32 %4, 3
  %6 = xor i32 %5, %4
  %7 = load i32, ptr %2, align 8
  %8 = urem i32 %6, %7
  %9 = getelementptr inbounds i8, ptr %2, i64 8
  %10 = load ptr, ptr %9, align 8
  %11 = zext i32 %8 to i64
  %12 = getelementptr inbounds ptr, ptr %10, i64 %11
  %13 = load ptr, ptr %12, align 8
  %.not11.i.i.i = icmp eq ptr %13, null
  br i1 %.not11.i.i.i, label %_ZNK21ResourceHashtableBaseI34ResizeableResourceHashtableStorageIP7oopDescN10HeapShared13CachedOopInfoELN6AnyObj15allocation_typeE2EL8MEMFLAGS13EES2_S4_LS6_2ELS7_13EXadL_ZNS3_8oop_hashERKS2_EEXadL_Z16primitive_equalsIS2_EbRKT_SE_EEE3getESA_.exit, label %.lr.ph.i.i.i

.lr.ph.i.i.i:                                     ; preds = %1, %21
  %14 = phi ptr [ %23, %21 ], [ %13, %1 ]
  %15 = load i32, ptr %14, align 8
  %16 = icmp eq i32 %15, %6
  br i1 %16, label %17, label %21

17:                                               ; preds = %.lr.ph.i.i.i
  %18 = getelementptr inbounds i8, ptr %14, i64 8
  %19 = load ptr, ptr %18, align 8
  %20 = icmp eq ptr %19, %0
  br i1 %20, label %_ZNK21ResourceHashtableBaseI34ResizeableResourceHashtableStorageIP7oopDescN10HeapShared13CachedOopInfoELN6AnyObj15allocation_typeE2EL8MEMFLAGS13EES2_S4_LS6_2ELS7_13EXadL_ZNS3_8oop_hashERKS2_EEXadL_Z16primitive_equalsIS2_EbRKT_SE_EEE3getESA_.exit, label %21

21:                                               ; preds = %17, %.lr.ph.i.i.i
  %22 = getelementptr inbounds i8, ptr %14, i64 40
  %23 = load ptr, ptr %22, align 8
  %.not.i.i.i = icmp eq ptr %23, null
  br i1 %.not.i.i.i, label %_ZNK21ResourceHashtableBaseI34ResizeableResourceHashtableStorageIP7oopDescN10HeapShared13CachedOopInfoELN6AnyObj15allocation_typeE2EL8MEMFLAGS13EES2_S4_LS6_2ELS7_13EXadL_ZNS3_8oop_hashERKS2_EEXadL_Z16primitive_equalsIS2_EbRKT_SE_EEE3getESA_.exit, label %.lr.ph.i.i.i, !llvm.loop !9

_ZNK21ResourceHashtableBaseI34ResizeableResourceHashtableStorageIP7oopDescN10HeapShared13CachedOopInfoELN6AnyObj15allocation_typeE2EL8MEMFLAGS13EES2_S4_LS6_2ELS7_13EXadL_ZNS3_8oop_hashERKS2_EEXadL_Z16primitive_equalsIS2_EbRKT_SE_EEE3getESA_.exit: ; preds = %17, %21, %1
  %24 = phi ptr [ null, %1 ], [ null, %21 ], [ %14, %17 ]
  %.not.i = icmp eq ptr %24, null
  %25 = getelementptr inbounds i8, ptr %24, i64 16
  %.0.i = select i1 %.not.i, ptr null, ptr %25
  %26 = getelementptr inbounds i8, ptr %.0.i, i64 17
  store i8 1, ptr %26, align 1
  ret void
}